GAS LISTING nuclidedb_generator.s 			page 1


   1              	.global _start
   2              	
   3              	.section .rodata
   4 0000 7777772D 	    host_name:    .string "www-nds.iaea.org"
   4      6E64732E 
   4      69616561 
   4      2E6F7267 
   4      00
   5 0011 383000   	    port_str:     .string "80"
   6 0014 6269746F 	    ptx_file:     .string "bitonic_sort.cubin"
   6      6E69635F 
   6      736F7274 
   6      2E637562 
   6      696E00
   7 0027 6269746F 	    func_name:    .string "bitonic_sort"
   7      6E69635F 
   7      736F7274 
   7      00
   8 0034 69736F74 	    out_file:     .string "isotopes.db"
   8      6F706573 
   8      2E646200 
   9              	    
  10              	    # Cloudflare WAF Browser Integrity Check Bypassing Header Block
  11              	    http_request:
  12 0040 47455420 	        .ascii "GET /relnsd/v1/data?fields=ground_states&nuclides=all HTTP/1.1\r\n"
  12      2F72656C 
  12      6E73642F 
  12      76312F64 
  12      6174613F 
  13 0080 486F7374 	        .ascii "Host: www-nds.iaea.org\r\n"
  13      3A207777 
  13      772D6E64 
  13      732E6961 
  13      65612E6F 
  14 0098 55736572 	        .ascii "User-Agent: Mozilla/5.0 (X11; Linux x86_64) AppleWebKit/537.36 (KHTML, like Gecko) 
  14      2D416765 
  14      6E743A20 
  14      4D6F7A69 
  14      6C6C612F 
  15 010b 41636365 	        .ascii "Accept: text/csv\r\n"
  15      70743A20 
  15      74657874 
  15      2F637376 
  15      0D0A
  16 011d 436F6E6E 	        .ascii "Connection: close\r\n\r\n"
  16      65637469 
  16      6F6E3A20 
  16      636C6F73 
  16      650D0A0D 
  17              	    http_len = . - http_request
  18              	
  19 0132 0000     	    .align 4
  20 0134 1872313F 	    ln2:          .float 0.69314718
  21 0138 804FC347 	    k_inf:        .float 99999.0      # Oneindig hoge k-waarde voor dummy sinking
  22              	
  23 013c 1B5B313B 	    fmt_nocuda:   .ascii "\033[1;31m[ERROR]\033[0m No NVIDIA GPU or driver detected on this system.
  23      33316D5B 
GAS LISTING nuclidedb_generator.s 			page 2


  23      4552524F 
  23      525D1B5B 
  23      306D204E 
  24 0180 44000000 	    fmt_nocuda_l: .long . - fmt_nocuda
  25              	
  26              	.section .data
  27              	    .align 8
  28 0000 00000000 	    cu_ctx:       .quad 0
  28      00000000 
  29 0008 00000000 	    cu_device:    .long 0
  30 000c 00000000 	    cu_module:    .quad 0
  30      00000000 
  31 0014 00000000 	    cu_function:  .quad 0
  31      00000000 
  32 001c 00000000 	    d_db_ptr:     .quad 0
  32      00000000 
  33              	
  34 0024 00000000 	    .align 8
  35              	    kernel_params:
  36 0028 00000000 	        p_db:     .quad 0
  36      00000000 
  37 0030 00000000 	        p_j:      .long 0
  38 0034 00000000 	        p_k:      .long 0
  39 0038 00100000 	        p_num:    .long 4096
  40 003c 00000000 	    .align 8
  41 0040 00000000 	    kernel_args:  .quad kernel_params, kernel_params+8, kernel_params+12, kernel_params+16
  41      00000000 
  41      00000000 
  41      00000000 
  41      00000000 
  42              	
  43 0060 00000000 	    p_j_val:      .long 0
  44 0064 00000000 	    p_k_val:      .long 0
  45 0068 00000000 	    hints:        .zero 48            
  45      00000000 
  45      00000000 
  45      00000000 
  45      00000000 
  46              	
  47              	.section .bss
  48              	    .align 16
  49 0000 00000000 	    net_buffer:   .space 524288       # 512 KB network buffer
  49      00000000 
  49      00000000 
  49      00000000 
  49      00000000 
  50              	    
  51              	    .align 16
  52 80000 00000000 	    database:     .space 131072       # 4096 records * 32 bytes = 128 KB
  52      00000000 
  52      00000000 
  52      00000000 
  52      00000000 
  53              	    
  54 a0000 00000000 	    res_addrinfo: .quad 0
  54      00000000 
  55 a0008 00000000 	    sock_fd:      .quad 0
GAS LISTING nuclidedb_generator.s 			page 3


  55      00000000 
  56              	
  57              	.section .text
  58              	_start:
  59              	    # Garandeer strikte x86_64 ABI stack-alignment
  60 0000 55       	    pushq   %rbp
  61 0001 4889E5   	    movq    %rsp, %rbp
  62 0004 4883E4F0 	    andq    $-16, %rsp
  63              	
  64              	    # ==========================================
  65              	    # 1. RAW NETWORK SOCKET FETCH (IAEA INGESTIE)
  66              	    # ==========================================
  67 0008 C7050000 	    movl    $2, (hints + 4)(%rip)     # ai_family = AF_INET (IPv4)
  67      00000200 
  67      0000
  68 0012 C7050000 	    movl    $1, (hints + 8)(%rip)     # ai_socktype = SOCK_STREAM
  68      00000100 
  68      0000
  69              	
  70 001c 488D3D00 	    leaq    host_name(%rip), %rdi
  70      000000
  71 0023 488D3500 	    leaq    port_str(%rip), %rsi
  71      000000
  72 002a 488D1500 	    leaq    hints(%rip), %rdx
  72      000000
  73 0031 488D0D00 	    leaq    res_addrinfo(%rip), %rcx
  73      000000
  74 0038 E8000000 	    call    getaddrinfo@PLT
  74      00
  75 003d 85C0     	    testl   %eax, %eax
  76 003f 0F854D03 	    jnz     error_exit
  76      0000
  77              	
  78 0045 488B0500 	    movq    res_addrinfo(%rip), %rax
  78      000000
  79 004c 8B7804   	    movl    4(%rax), %edi             
  80 004f 8B7008   	    movl    8(%rax), %esi             
  81 0052 8B500C   	    movl    12(%rax), %edx            
  82 0055 E8000000 	    call    socket@PLT
  82      00
  83 005a 48890500 	    movq    %rax, sock_fd(%rip)
  83      000000
  84              	
  85 0061 488B3D00 	    movq    sock_fd(%rip), %rdi
  85      000000
  86 0068 488B0500 	    movq    res_addrinfo(%rip), %rax
  86      000000
  87 006f 488B7018 	    movq    24(%rax), %rsi            
  88 0073 8B5010   	    movl    16(%rax), %edx            
  89 0076 E8000000 	    call    connect@PLT
  89      00
  90 007b 85C0     	    testl   %eax, %eax
  91 007d 0F880F03 	    js      error_exit
  91      0000
  92              	
  93 0083 488B3D00 	    movq    sock_fd(%rip), %rdi
  93      000000
GAS LISTING nuclidedb_generator.s 			page 4


  94 008a 488D3500 	    leaq    http_request(%rip), %rsi
  94      000000
  95 0091 48C7C2F2 	    movq    $http_len, %rdx
  95      000000
  96 0098 4831C9   	    xorq    %rcx, %rcx                     
  97 009b E8000000 	    call    send@PLT
  97      00
  98              	
  99 00a0 4C8D2500 	    leaq    net_buffer(%rip), %r12            
  99      000000
 100              	READ_STREAM_LOOP:
 101 00a7 488B3D00 	    movq    sock_fd(%rip), %rdi
 101      000000
 102 00ae 4C89E6   	    movq    %r12, %rsi
 103 00b1 48C7C200 	    movq    $4096, %rdx                    
 103      100000
 104 00b8 4831C9   	    xorq    %rcx, %rcx
 105 00bb E8000000 	    call    recv@PLT
 105      00
 106 00c0 4885C0   	    testq   %rax, %rax
 107 00c3 7E05     	    jle     CLOSE_SOCKET                 
 108 00c5 4901C4   	    addq    %rax, %r12                     
 109 00c8 EBDD     	    jmp     READ_STREAM_LOOP
 110              	
 111              	CLOSE_SOCKET:
 112 00ca 488B3D00 	    movq    sock_fd(%rip), %rdi
 112      000000
 113 00d1 E8000000 	    call    close@PLT
 113      00
 114              	
 115              	    # ==========================================
 116              	    # 2. IN-MEMORY PARSER & STRUCTUREERDER
 117              	    # ==========================================
 118 00d6 488D3500 	    leaq    net_buffer(%rip), %rsi            
 118      000000
 119 00dd 488D3D00 	    leaq    database(%rip), %rdi              
 119      000000
 120 00e4 4531ED   	    xorl    %r13d, %r13d                   
 121              	
 122              	SKIP_HTTP_HEADER:
 123 00e7 4C39E6   	    cmpq    %r12, %rsi
 124 00ea 0F8DD300 	    jge     PADDING_DATABASE
 124      0000
 125 00f0 8B06     	    movl    (%rsi), %eax
 126 00f2 3D0D0A0D 	    cmpl    $0x0A0D0A0D, %eax              
 126      0A
 127 00f7 7405     	    je      FOUND_DATA_START
 128 00f9 48FFC6   	    incq    %rsi
 129 00fc EBE9     	    jmp     SKIP_HTTP_HEADER
 130              	
 131              	FOUND_DATA_START:
 132 00fe 4883C604 	    addq    $4, %rsi                       
 133              	
 134              	SKIP_CSV_HEADER:
 135 0102 4C39E6   	    cmpq    %r12, %rsi
 136 0105 0F8DB800 	    jge     PADDING_DATABASE
 136      0000
GAS LISTING nuclidedb_generator.s 			page 5


 137 010b 8A06     	    movb    (%rsi), %al
 138 010d 48FFC6   	    incq    %rsi
 139 0110 3C0A     	    cmpb    $10, %al                       
 140 0112 75EE     	    jne     SKIP_CSV_HEADER
 141              	
 142              	PARSE_RECORD_LINE:
 143 0114 4C39E6   	    cmpq    %r12, %rsi
 144 0117 0F8DA600 	    jge     PADDING_DATABASE
 144      0000
 145 011d 4181FD3C 	    cmpl    $3388, %r13d                   
 145      0D0000
 146 0124 0F8D9900 	    jge     PADDING_DATABASE
 146      0000
 147              	
 148              	    # --- Kolom 1: Z ---
 149 012a 31C0     	    xorl    %eax, %eax
 150 012c 31C9     	    xorl    %ecx, %ecx
 151              	PARSE_Z:
 152 012e 8A0E     	    movb    (%rsi), %cl
 153 0130 48FFC6   	    incq    %rsi
 154 0133 80F92C   	    cmpb    $',', %cl
 155 0136 740A     	    je      STORE_Z
 156 0138 6BC00A   	    imull   $10, %eax
 157 013b 80E930   	    subb    $48, %cl
 158 013e 01C8     	    addl    %ecx, %eax
 159 0140 EBEC     	    jmp     PARSE_Z
 160              	STORE_Z:
 161 0142 894708   	    movl    %eax, 8(%rdi)     
 162              	
 163              	    # --- Kolom 2: A ---
 164 0145 31C0     	    xorl    %eax, %eax
 165              	PARSE_A:
 166 0147 8A0E     	    movb    (%rsi), %cl
 167 0149 48FFC6   	    incq    %rsi
 168 014c 80F92C   	    cmpb    $',', %cl
 169 014f 740A     	    je      STORE_A
 170 0151 6BC00A   	    imull   $10, %eax
 171 0154 80E930   	    subb    $48, %cl
 172 0157 01C8     	    addl    %ecx, %eax
 173 0159 EBEC     	    jmp     PARSE_A
 174              	STORE_A:
 175 015b 894704   	    movl    %eax, 4(%rdi)     
 176              	
 177              	    # --- Kolom 3: Symbool ---
 178 015e 488D570C 	    leaq    12(%rdi), %rdx              
 179 0162 31C0     	    xorl    %eax, %eax                     
 180              	PARSE_NAME:
 181 0164 8A0E     	    movb    (%rsi), %cl
 182 0166 48FFC6   	    incq    %rsi
 183 0169 80F92C   	    cmpb    $',', %cl
 184 016c 7408     	    je      STORE_NAME
 185 016e 880C02   	    movb    %cl, (%rdx,%rax)
 186 0171 48FFC0   	    incq    %rax
 187 0174 EBEE     	    jmp     PARSE_NAME
 188              	STORE_NAME:
 189 0176 C6040200 	    movb    $0, (%rdx,%rax)      
 190              	
GAS LISTING nuclidedb_generator.s 			page 6


 191              	    # --- Kolom 4: Half_life_sec ---
 192 017a 31C0     	    xorl    %eax, %eax                     
 193              	PARSE_THALF_INT:
 194 017c 8A0E     	    movb    (%rsi), %cl
 195 017e 48FFC6   	    incq    %rsi
 196 0181 80F92E   	    cmpb    $'.', %cl
 197 0184 740F     	    je      PARSE_THALF_FRAC
 198 0186 80F90A   	    cmpb    $10, %cl                       
 199 0189 7418     	    je      CALC_K_DIRECT
 200 018b 6BC00A   	    imull   $10, %eax
 201 018e 80E930   	    subb    $48, %cl
 202 0191 01C8     	    addl    %ecx, %eax
 203 0193 EBE7     	    jmp     PARSE_THALF_INT
 204              	
 205              	PARSE_THALF_FRAC:
 206 0195 F30F2AC0 	    cvtsi2ssl %eax, %xmm0
 207              	    
 208              	SKIP_TO_EOL:
 209 0199 8A0E     	    movb    (%rsi), %cl
 210 019b 48FFC6   	    incq    %rsi
 211 019e 80F90A   	    cmpb    $10, %cl
 212 01a1 75F6     	    jne     SKIP_TO_EOL
 213              	
 214              	CALC_K_DIRECT:
 215 01a3 F30F2AC0 	    cvtsi2ssl %eax, %xmm0
 216 01a7 F30F100D 	    movss   ln2(%rip), %xmm1
 216      00000000 
 217 01af F30F5EC8 	    divss   %xmm0, %xmm1
 218 01b3 F30F110F 	    movss   %xmm1, (%rdi)        
 219              	
 220 01b7 41FFC5   	    incl    %r13d                         
 221 01ba 4883C720 	    addq    $32, %rdi                      
 222 01be E951FFFF 	    jmp     PARSE_RECORD_LINE
 222      FF
 223              	
 224              	    # ==========================================
 225              	    # 3. POWER OF 2 PADDING
 226              	    # ==========================================
 227              	PADDING_DATABASE:
 228 01c3 4181FD00 	    cmpl    $4096, %r13d
 228      100000
 229 01ca 7D23     	    jge     PREPARE_CUDA_SORT
 230              	    
 231 01cc 8B050000 	    movl    k_inf(%rip), %eax
 231      0000
 232 01d2 8907     	    movl    %eax, (%rdi)
 233 01d4 C7470400 	    movl    $0, 4(%rdi)       
 233      000000
 234 01db C7470800 	    movl    $0, 8(%rdi)       
 234      000000
 235 01e2 C6470C00 	    movb    $0, 12(%rdi)       
 236              	    
 237 01e6 41FFC5   	    incl    %r13d
 238 01e9 4883C720 	    addq    $32, %rdi
 239 01ed EBD4     	    jmp     PADDING_DATABASE
 240              	
 241              	    # ==========================================
GAS LISTING nuclidedb_generator.s 			page 7


 242              	    # 4. GPU BITONIC MERGE SORT SYSTEM
 243              	    # ==========================================
 244              	PREPARE_CUDA_SORT:
 245 01ef 31FF     	    xorl    %edi, %edi
 246 01f1 E8000000 	    call    cuInit@PLT
 246      00
 247 01f6 85C0     	    testl   %eax, %eax
 248 01f8 0F856B01 	    jnz     .L_cuda_error
 248      0000
 249              	
 250 01fe 488D3D00 	    leaq    cu_device(%rip), %rdi
 250      000000
 251 0205 31F6     	    xorl    %esi, %esi
 252 0207 E8000000 	    call    cuDeviceGet@PLT
 252      00
 253 020c 488D3D00 	    leaq    cu_ctx(%rip), %rdi
 253      000000
 254 0213 31F6     	    xorl    %esi, %esi
 255 0215 8B150000 	    movl    cu_device(%rip), %edx
 255      0000
 256 021b E8000000 	    call    cuCtxCreate@PLT
 256      00
 257              	
 258 0220 488D3D00 	    leaq    d_db_ptr(%rip), %rdi
 258      000000
 259 0227 BE000002 	    movl    $131072, %esi
 259      00
 260 022c E8000000 	    call    cuMemAlloc@PLT
 260      00
 261              	
 262 0231 488B3D00 	    movq    d_db_ptr(%rip), %rdi
 262      000000
 263 0238 488D3500 	    leaq    database(%rip), %rsi
 263      000000
 264 023f BA000002 	    movl    $131072, %edx
 264      00
 265 0244 E8000000 	    call    cuMemcpyHtoD@PLT
 265      00
 266              	
 267 0249 488D3D00 	    leaq    cu_module(%rip), %rdi
 267      000000
 268 0250 488D3500 	    leaq    ptx_file(%rip), %rsi
 268      000000
 269 0257 E8000000 	    call    cuModuleLoad@PLT
 269      00
 270 025c 488D3D00 	    leaq    cu_function(%rip), %rdi
 270      000000
 271 0263 488B3500 	    movq    cu_module(%rip), %rsi
 271      000000
 272 026a 488D1500 	    leaq    func_name(%rip), %rdx
 272      000000
 273 0271 E8000000 	    call    cuModuleGetFunction@PLT
 273      00
 274              	
 275 0276 488B0500 	    movq    d_db_ptr(%rip), %rax
 275      000000
 276 027d 48890500 	    movq    %rax, kernel_params(%rip)
GAS LISTING nuclidedb_generator.s 			page 8


 276      000000
 277              	
 278 0284 C7050000 	    movl    $2, p_k_val(%rip)
 278      00000200 
 278      0000
 279              	
 280              	CUDA_OUTER_LOOP:
 281 028e 8B050000 	    movl    p_k_val(%rip), %eax
 281      0000
 282 0294 3D001000 	    cmpl    $4096, %eax
 282      00
 283 0299 7F6E     	    jg      DOWNLOAD_SORTED_DB
 284 029b 89050000 	    movl    %eax, (kernel_params + 12)(%rip) 
 284      0000
 285              	
 286 02a1 D1E8     	    shrl    $1, %eax
 287 02a3 89050000 	    movl    %eax, p_j_val(%rip)
 287      0000
 288              	
 289              	CUDA_INNER_LOOP:
 290 02a9 8B050000 	    movl    p_j_val(%rip), %eax
 290      0000
 291 02af 85C0     	    testl   %eax, %eax
 292 02b1 744E     	    jz      CUDA_NEXT_OUTER
 293 02b3 89050000 	    movl    %eax, (kernel_params + 8)(%rip)  
 293      0000
 294              	
 295 02b9 488B3D00 	    movq    cu_function(%rip), %rdi
 295      000000
 296 02c0 BE100000 	    movl    $16, %esi          
 296      00
 297 02c5 BA010000 	    movl    $1, %edx
 297      00
 298 02ca B9010000 	    movl    $1, %ecx
 298      00
 299 02cf 41B80001 	    movl    $256, %r8d         
 299      0000
 300 02d5 41B90100 	    movl    $1, %r9d
 300      0000
 301 02db 6A00     	    pushq   $0
 302 02dd 6A00     	    pushq   $0
 303 02df 488D0500 	    leaq    kernel_args(%rip), %rax
 303      000000
 304 02e6 50       	    pushq   %rax
 305 02e7 6A00     	    pushq   $0
 306 02e9 6A01     	    pushq   $1
 307 02eb E8000000 	    call    cuLaunchKernel@PLT
 307      00
 308 02f0 4883C428 	    addq    $40, %rsp
 309              	
 310 02f4 E8000000 	    call    cuCtxSynchronize@PLT
 310      00
 311              	
 312 02f9 D12D0000 	    shrl    $1, p_j_val(%rip)
 312      0000
 313 02ff EBA8     	    jmp     CUDA_INNER_LOOP
 314              	
GAS LISTING nuclidedb_generator.s 			page 9


 315              	CUDA_NEXT_OUTER:
 316 0301 D1250000 	    shll    $1, p_k_val(%rip)
 316      0000
 317 0307 EB85     	    jmp     CUDA_OUTER_LOOP
 318              	
 319              	    # ==========================================
 320              	    # 5. COMMIT NAAR LOCAL DISK (isotopes.db)
 321              	    # ==========================================
 322              	DOWNLOAD_SORTED_DB:
 323 0309 488D3D00 	    leaq    database(%rip), %rdi
 323      000000
 324 0310 488B3500 	    movq    d_db_ptr(%rip), %rsi
 324      000000
 325 0317 BA000002 	    movl    $131072, %edx
 325      00
 326 031c E8000000 	    call    cuMemcpyDtoH@PLT
 326      00
 327              	
 328 0321 B8020000 	    movl    $2, %eax              # sys_open
 328      00
 329 0326 488D3D00 	    leaq    out_file(%rip), %rdi
 329      000000
 330 032d BE410000 	    movl    $0101, %esi           # O_WRONLY | O_CREAT
 330      00
 331 0332 BAA40100 	    movl    $0644, %edx           
 331      00
 332 0337 0F05     	    syscall
 333 0339 4989C6   	    movq    %rax, %r14            
 334              	
 335 033c B8010000 	    movl    $1, %eax              # sys_write
 335      00
 336 0341 4C89F7   	    movq    %r14, %rdi
 337 0344 488D3500 	    leaq    database(%rip), %rsi
 337      000000
 338 034b BA000002 	    movl    $131072, %edx
 338      00
 339 0350 0F05     	    syscall
 340              	
 341 0352 B8030000 	    movl    $3, %eax              # sys_close
 341      00
 342 0357 4C89F7   	    movq    %r14, %rdi
 343 035a 0F05     	    syscall
 344              	
 345              	    # Herstel stack frame en sluit clean af
 346 035c 4889EC   	    movq    %rbp, %rsp
 347 035f 5D       	    popq    %rbp
 348 0360 B83C0000 	    movl    $60, %eax             # sys_exit
 348      00
 349 0365 31FF     	    xorl    %edi, %edi
 350 0367 0F05     	    syscall
 351              	
 352              	.L_cuda_error:
 353 0369 B8010000 	    movl    $1, %eax              # sys_write
 353      00
 354 036e BF020000 	    movl    $2, %edi              # stderr
 354      00
 355 0373 488D3500 	    leaq    fmt_nocuda(%rip), %rsi
GAS LISTING nuclidedb_generator.s 			page 10


 355      000000
 356 037a 8B150000 	    movl    fmt_nocuda_l(%rip), %edx
 356      0000
 357 0380 0F05     	    syscall
 358 0382 4889EC   	    movq    %rbp, %rsp
 359 0385 5D       	    popq    %rbp
 360 0386 B83C0000 	    movl    $60, %eax
 360      00
 361 038b BF010000 	    movl    $1, %edi
 361      00
 362 0390 0F05     	    syscall
 363              	
 364              	error_exit:
 365 0392 4889EC   	    movq    %rbp, %rsp
 366 0395 5D       	    popq    %rbp
 367 0396 B83C0000 	    movl    $60, %eax
 367      00
 368 039b BF010000 	    movl    $1, %edi
 368      00
 369 03a0 0F05     	    syscall
 370              	
 371              	.size _start, . - _start
 372              	.section .note.GNU-stack,"",@progbits
 373              	
GAS LISTING nuclidedb_generator.s 			page 11


DEFINED SYMBOLS
nuclidedb_generator.s:58     .text:0000000000000000 _start
nuclidedb_generator.s:4      .rodata:0000000000000000 host_name
nuclidedb_generator.s:5      .rodata:0000000000000011 port_str
nuclidedb_generator.s:6      .rodata:0000000000000014 ptx_file
nuclidedb_generator.s:7      .rodata:0000000000000027 func_name
nuclidedb_generator.s:8      .rodata:0000000000000034 out_file
nuclidedb_generator.s:11     .rodata:0000000000000040 http_request
nuclidedb_generator.s:17     *ABS*:00000000000000f2 http_len
nuclidedb_generator.s:20     .rodata:0000000000000134 ln2
nuclidedb_generator.s:21     .rodata:0000000000000138 k_inf
nuclidedb_generator.s:23     .rodata:000000000000013c fmt_nocuda
nuclidedb_generator.s:24     .rodata:0000000000000180 fmt_nocuda_l
nuclidedb_generator.s:28     .data:0000000000000000 cu_ctx
nuclidedb_generator.s:29     .data:0000000000000008 cu_device
nuclidedb_generator.s:30     .data:000000000000000c cu_module
nuclidedb_generator.s:31     .data:0000000000000014 cu_function
nuclidedb_generator.s:32     .data:000000000000001c d_db_ptr
nuclidedb_generator.s:35     .data:0000000000000028 kernel_params
nuclidedb_generator.s:36     .data:0000000000000028 p_db
nuclidedb_generator.s:37     .data:0000000000000030 p_j
nuclidedb_generator.s:38     .data:0000000000000034 p_k
nuclidedb_generator.s:39     .data:0000000000000038 p_num
nuclidedb_generator.s:41     .data:0000000000000040 kernel_args
nuclidedb_generator.s:43     .data:0000000000000060 p_j_val
nuclidedb_generator.s:44     .data:0000000000000064 p_k_val
nuclidedb_generator.s:45     .data:0000000000000068 hints
nuclidedb_generator.s:49     .bss:0000000000000000 net_buffer
nuclidedb_generator.s:52     .bss:0000000000080000 database
nuclidedb_generator.s:54     .bss:00000000000a0000 res_addrinfo
nuclidedb_generator.s:55     .bss:00000000000a0008 sock_fd
nuclidedb_generator.s:364    .text:0000000000000392 error_exit
nuclidedb_generator.s:100    .text:00000000000000a7 READ_STREAM_LOOP
nuclidedb_generator.s:111    .text:00000000000000ca CLOSE_SOCKET
nuclidedb_generator.s:122    .text:00000000000000e7 SKIP_HTTP_HEADER
nuclidedb_generator.s:227    .text:00000000000001c3 PADDING_DATABASE
nuclidedb_generator.s:131    .text:00000000000000fe FOUND_DATA_START
nuclidedb_generator.s:134    .text:0000000000000102 SKIP_CSV_HEADER
nuclidedb_generator.s:142    .text:0000000000000114 PARSE_RECORD_LINE
nuclidedb_generator.s:151    .text:000000000000012e PARSE_Z
nuclidedb_generator.s:160    .text:0000000000000142 STORE_Z
nuclidedb_generator.s:165    .text:0000000000000147 PARSE_A
nuclidedb_generator.s:174    .text:000000000000015b STORE_A
nuclidedb_generator.s:180    .text:0000000000000164 PARSE_NAME
nuclidedb_generator.s:188    .text:0000000000000176 STORE_NAME
nuclidedb_generator.s:193    .text:000000000000017c PARSE_THALF_INT
nuclidedb_generator.s:205    .text:0000000000000195 PARSE_THALF_FRAC
nuclidedb_generator.s:214    .text:00000000000001a3 CALC_K_DIRECT
nuclidedb_generator.s:208    .text:0000000000000199 SKIP_TO_EOL
nuclidedb_generator.s:244    .text:00000000000001ef PREPARE_CUDA_SORT
nuclidedb_generator.s:280    .text:000000000000028e CUDA_OUTER_LOOP
nuclidedb_generator.s:322    .text:0000000000000309 DOWNLOAD_SORTED_DB
nuclidedb_generator.s:289    .text:00000000000002a9 CUDA_INNER_LOOP
nuclidedb_generator.s:315    .text:0000000000000301 CUDA_NEXT_OUTER

UNDEFINED SYMBOLS
getaddrinfo
GAS LISTING nuclidedb_generator.s 			page 12


socket
connect
send
recv
close
cuInit
cuDeviceGet
cuCtxCreate
cuMemAlloc
cuMemcpyHtoD
cuModuleLoad
cuModuleGetFunction
cuLaunchKernel
cuCtxSynchronize
cuMemcpyDtoH
